target datalayout = "e-m:e-p270:32:32-p271:32:32-p272:64:64-i64:64-i128:128-f80:128-n8:16:32:64-S128"
target triple = "x86_64-unknown-linux-gnu"

%"class.std::set.0" = type { %"class.std::_Rb_tree.1" }
%"class.std::_Rb_tree.1" = type { %"struct.std::_Rb_tree<QuantLib::Observer *, QuantLib::Observer *, std::_Identity<QuantLib::Observer *>, std::less<QuantLib::Observer *>>::_Rb_tree_impl" }
%"struct.std::_Rb_tree<QuantLib::Observer *, QuantLib::Observer *, std::_Identity<QuantLib::Observer *>, std::less<QuantLib::Observer *>>::_Rb_tree_impl" = type { [8 x i8], %"struct.std::_Rb_tree_header" }
%"struct.std::_Rb_tree_header" = type { %"struct.std::_Rb_tree_node_base", i64 }
%"struct.std::_Rb_tree_node_base" = type { i32, ptr, ptr, ptr }
%"class.QuantLib::Date" = type { i64 }
%"class.boost::detail::shared_count" = type { ptr }
%"class.std::set" = type { %"class.std::_Rb_tree" }
%"class.std::_Rb_tree" = type { %"struct.std::_Rb_tree<boost::shared_ptr<QuantLib::Observable>, boost::shared_ptr<QuantLib::Observable>, std::_Identity<boost::shared_ptr<QuantLib::Observable>>, std::less<boost::shared_ptr<QuantLib::Observable>>>::_Rb_tree_impl" }
%"struct.std::_Rb_tree<boost::shared_ptr<QuantLib::Observable>, boost::shared_ptr<QuantLib::Observable>, std::_Identity<boost::shared_ptr<QuantLib::Observable>>, std::less<boost::shared_ptr<QuantLib::Observable>>>::_Rb_tree_impl" = type { [8 x i8], %"struct.std::_Rb_tree_header" }
%"class.QuantLib::Observable" = type { ptr, %"class.std::set.0" }
%"class.QuantLib::Period" = type { i32, i32 }
%"class.QuantLib::Handle.51" = type { %"class.boost::shared_ptr.52" }
%"class.boost::shared_ptr.52" = type { ptr, %"class.boost::detail::shared_count" }
%"class.QuantLib::CmsCouponPricer.base" = type { %"class.QuantLib::FloatingRateCouponPricer.base", %"class.QuantLib::Handle.51" }
%"class.QuantLib::FloatingRateCouponPricer.base" = type { ptr }
%"class.QuantLib::MeanRevertingPricer" = type { ptr }
%"class.boost::shared_ptr.53" = type { ptr, %"class.boost::detail::shared_count" }
%"class.boost::shared_ptr.54" = type { ptr, %"class.boost::detail::shared_count" }
%"class.QuantLib::Handle" = type { %"class.boost::shared_ptr.50" }
%"class.boost::shared_ptr.50" = type { ptr, %"class.boost::detail::shared_count" }
%"class.boost::shared_ptr.55" = type { ptr, %"class.boost::detail::shared_count" }
%"class.QuantLib::Observer" = type { ptr, %"class.std::set" }
%"class.QuantLib::NumericHaganPricer" = type { %"class.QuantLib::HaganPricer.base", double, double, double, double, double, double, double, double, %"class.QuantLib::Observer", %"class.QuantLib::Observable" }
%"class.QuantLib::HaganPricer.base" = type { %"class.QuantLib::CmsCouponPricer.base", %"class.QuantLib::MeanRevertingPricer", %"class.boost::shared_ptr.53", i32, %"class.boost::shared_ptr.54", ptr, %"class.QuantLib::Date", %"class.QuantLib::Date", double, double, double, double, double, double, double, double, %"class.QuantLib::Handle", %"class.QuantLib::Period", %"class.boost::shared_ptr.55" }

; Function Attrs: mustprogress uwtable
define noundef double @_ZNK8QuantLib18NumericHaganPricer17refineIntegrationEdRKNS0_18ConundrumIntegrandE(ptr noundef nonnull align 8 dereferenceable(264) %this, double noundef %integralValue, ptr noundef nonnull align 8 dereferenceable(88) %integrand) #2 align 2 {
entry:
  %this.addr = alloca ptr, align 8
  %integralValue.addr = alloca double, align 8
  %integrand.addr = alloca ptr, align 8
  %percDiff = alloca double, align 8
  %lowerLimit = alloca double, align 8
  %diff = alloca double, align 8
  store ptr %this, ptr %this.addr, align 8, !tbaa !3
  store double %integralValue, ptr %integralValue.addr, align 8, !tbaa !18
  store ptr %integrand, ptr %integrand.addr, align 8, !tbaa !3
  %this1 = load ptr, ptr %this.addr, align 8
  call void @llvm.lifetime.start.p0(i64 8, ptr %percDiff) #18
  store double 1.000000e+03, ptr %percDiff, align 8, !tbaa !18
  br label %while.cond

while.cond:                                       ; preds = %while.body, %entry
  %0 = load double, ptr %percDiff, align 8, !tbaa !18
  %1 = call double @llvm.fabs.f64(double %0)
  %refiningIntegrationTolerance_ = getelementptr inbounds nuw %"class.QuantLib::NumericHaganPricer", ptr %this1, i32 0, i32 7
  %2 = load double, ptr %refiningIntegrationTolerance_, align 8, !tbaa !93
  %cmp = fcmp olt double %1, %2
  br i1 %cmp, label %while.body, label %while.end

while.body:                                       ; preds = %while.cond
  %stdDeviationsForUpperLimit_ = getelementptr inbounds nuw %"class.QuantLib::NumericHaganPricer", ptr %this1, i32 0, i32 4
  %3 = load double, ptr %stdDeviationsForUpperLimit_, align 8, !tbaa !105
  %add = fadd double %3, 1.000000e+00
  store double %add, ptr %stdDeviationsForUpperLimit_, align 8, !tbaa !105
  call void @llvm.lifetime.start.p0(i64 8, ptr %lowerLimit) #18
  %upperLimit_ = getelementptr inbounds nuw %"class.QuantLib::NumericHaganPricer", ptr %this1, i32 0, i32 3
  %4 = load double, ptr %upperLimit_, align 8, !tbaa !90
  store double %4, ptr %lowerLimit, align 8, !tbaa !18
  %stdDeviationsForUpperLimit_2 = getelementptr inbounds nuw %"class.QuantLib::NumericHaganPricer", ptr %this1, i32 0, i32 4
  %5 = load double, ptr %stdDeviationsForUpperLimit_2, align 8, !tbaa !105
  %call = call noundef double @_ZNK8QuantLib18NumericHaganPricer15resetUpperLimitEd(ptr noundef nonnull align 8 dereferenceable(264) %this1, double noundef %5)
  %upperLimit_3 = getelementptr inbounds nuw %"class.QuantLib::NumericHaganPricer", ptr %this1, i32 0, i32 3
  store double %call, ptr %upperLimit_3, align 8, !tbaa !90
  call void @llvm.lifetime.start.p0(i64 8, ptr %diff) #18
  %6 = load double, ptr %lowerLimit, align 8, !tbaa !18
  %upperLimit_4 = getelementptr inbounds nuw %"class.QuantLib::NumericHaganPricer", ptr %this1, i32 0, i32 3
  %7 = load double, ptr %upperLimit_4, align 8, !tbaa !90
  %8 = load ptr, ptr %integrand.addr, align 8, !tbaa !3
  %call5 = call noundef double @_ZNK8QuantLib18NumericHaganPricer9integrateEddRKNS0_18ConundrumIntegrandE(ptr noundef nonnull align 8 dereferenceable(264) %this1, double noundef %6, double noundef %7, ptr noundef nonnull align 8 dereferenceable(88) %8)
  store double %call5, ptr %diff, align 8, !tbaa !18
  %9 = load double, ptr %diff, align 8, !tbaa !18
  %10 = load double, ptr %integralValue.addr, align 8, !tbaa !18
  %div = fdiv double %9, %10
  store double %div, ptr %percDiff, align 8, !tbaa !18
  %11 = load double, ptr %diff, align 8, !tbaa !18
  %12 = load double, ptr %integralValue.addr, align 8, !tbaa !18
  %add6 = fadd double %12, %11
  store double %add6, ptr %integralValue.addr, align 8, !tbaa !18
  call void @llvm.lifetime.end.p0(i64 8, ptr %diff) #18
  call void @llvm.lifetime.end.p0(i64 8, ptr %lowerLimit) #18
  br label %while.cond, !llvm.loop !113

while.end:                                        ; preds = %while.cond
  %13 = load double, ptr %integralValue.addr, align 8, !tbaa !18
  call void @llvm.lifetime.end.p0(i64 8, ptr %percDiff) #18
  ret double %13
}