; Function Attrs: mustprogress uwtable
define noundef double @_ZNK8QuantLib18NumericHaganPricer17refineIntegrationEdRKNS0_18ConundrumIntegrandE(ptr noundef nonnull align 8 dereferenceable(264) %this, double noundef %integralValue, ptr noundef nonnull align 8 dereferenceable(88) %integrand) local_unnamed_addr #7 align 2 {
entry:
  %refiningIntegrationTolerance_ = getelementptr inbounds nuw i8, ptr %this, i64 248
  %0 = load double, ptr %refiningIntegrationTolerance_, align 8, !tbaa !156
  %cmp4 = fcmp ogt double %0, 1.000000e+03
  br i1 %cmp4, label %while.body.lr.ph, label %while.end

while.body.lr.ph:                                 ; preds = %entry
  %stdDeviationsForUpperLimit_ = getelementptr inbounds nuw i8, ptr %this, i64 224
  %upperLimit_ = getelementptr inbounds nuw i8, ptr %this, i64 216
  br label %while.body

while.body:                                       ; preds = %while.body.lr.ph, %while.body
  %integralValue.addr.05 = phi double [ %integralValue, %while.body.lr.ph ], [ %add6, %while.body ]
  %1 = load double, ptr %stdDeviationsForUpperLimit_, align 8, !tbaa !175
  %add = fadd double %1, 1.000000e+00
  store double %add, ptr %stdDeviationsForUpperLimit_, align 8, !tbaa !175
  %2 = load double, ptr %upperLimit_, align 8, !tbaa !153
  %call = tail call noundef double @_ZNK8QuantLib18NumericHaganPricer15resetUpperLimitEd(ptr noundef nonnull align 8 dereferenceable(264) %this, double noundef %add)
  store double %call, ptr %upperLimit_, align 8, !tbaa !153
  %call5 = tail call noundef double @_ZNK8QuantLib18NumericHaganPricer9integrateEddRKNS0_18ConundrumIntegrandE(ptr noundef nonnull align 8 dereferenceable(264) %this, double noundef %2, double noundef %call, ptr noundef nonnull align 8 dereferenceable(88) %integrand)
  %div = fdiv double %call5, %integralValue.addr.05
  %add6 = fadd double %integralValue.addr.05, %call5
  %3 = tail call double @llvm.fabs.f64(double %div)
  %4 = load double, ptr %refiningIntegrationTolerance_, align 8, !tbaa !156
  %cmp = fcmp olt double %3, %4
  br i1 %cmp, label %while.body, label %while.end, !llvm.loop !194

while.end:                                        ; preds = %while.body, %entry
  %integralValue.addr.0.lcssa = phi double [ %integralValue, %entry ], [ %add6, %while.body ]
  ret double %integralValue.addr.0.lcssa
}